; Function Attrs: mustprogress uwtable
define internal fastcc void @_ZZN7AstNode11foreachImplI8AstCCallZN7V3Sched12_GLOBAL__N_117SchedGraphBuilder10visitLogicEPS_EUlPKS1_E_EEvPNSt11conditionalIXsr3std8is_constIT_EE5valueEKS_S_E4typeERKT0_bENKUlS5_E_clES5_(ptr nocapture noundef nonnull readonly align 8 dereferenceable(16) %0, ptr nocapture noundef readonly %1) unnamed_addr #3 align 2 personality ptr @__gxx_personality_v0 {
  %3 = getelementptr inbounds i8, ptr %1, i64 64
  %.sroa.0.0.copyload.i.i = load i16, ptr %3, align 8
  %4 = icmp eq i16 %.sroa.0.0.copyload.i.i, 234
  br i1 %4, label %5, label %_ZZN7V3Sched12_GLOBAL__N_117SchedGraphBuilder10visitLogicEP7AstNodeENKUlPK8AstCCallE_clES6_.exit

5:                                                ; preds = %2
  %6 = load ptr, ptr %0, align 8
  %7 = getelementptr i8, ptr %6, i64 8
  %.val22 = load ptr, ptr %7, align 8
  %8 = getelementptr i8, ptr %1, i64 192
  %.val23 = load ptr, ptr %8, align 8
  %9 = getelementptr i8, ptr %.val23, i64 313
  %.val23.val = load i32, ptr %9, align 1
  %10 = and i32 %.val23.val, 278528
  %or.cond.i = icmp eq i32 %10, 278528
  br i1 %or.cond.i, label %11, label %_ZZN7V3Sched12_GLOBAL__N_117SchedGraphBuilder10visitLogicEP7AstNodeENKUlPK8AstCCallE_clES6_.exit

11:                                               ; preds = %5
  %.val = load ptr, ptr %6, align 8
  %12 = tail call noalias noundef nonnull dereferenceable(72) ptr @_Znwm(i64 noundef 72) #25
  %13 = getelementptr inbounds i8, ptr %.val, i64 40
  %14 = load ptr, ptr %13, align 8
  %15 = getelementptr inbounds i8, ptr %.val, i64 160
  %16 = load ptr, ptr %15, align 8
  %17 = invoke fastcc noundef ptr @_ZNK7V3Sched12_GLOBAL__N_117SchedGraphBuilder12getVarVertexEP11AstVarScope(ptr noundef nonnull align 8 dereferenceable(168) %.val, ptr noundef %16)
          to label %18 unwind label %20

18:                                               ; preds = %11
  store ptr getelementptr inbounds inrange(-16, 72) ({ [11 x ptr] }, ptr @_ZTV11V3GraphEdge, i64 0, i32 0, i64 2), ptr %12, align 8
  %19 = getelementptr inbounds i8, ptr %12, i64 8
  tail call void @llvm.memset.p0.i64(ptr noundef nonnull align 8 dereferenceable(32) %19, i8 0, i64 32, i1 false)
  invoke void @_ZN11V3GraphEdge4initEP7V3GraphP13V3GraphVertexS3_ib(ptr noundef nonnull align 8 dereferenceable(72) %12, ptr noundef %14, ptr noundef %.val22, ptr noundef %17, i32 noundef 10, i1 noundef zeroext false)
          to label %_ZZN7V3Sched12_GLOBAL__N_117SchedGraphBuilder10visitLogicEP7AstNodeENKUlPK8AstCCallE_clES6_.exit unwind label %20

20:                                               ; preds = %18, %11
  %21 = landingpad { ptr, i32 }
          cleanup
  tail call void @_ZdlPv(ptr noundef nonnull %12) #27
  resume { ptr, i32 } %21

_ZZN7V3Sched12_GLOBAL__N_117SchedGraphBuilder10visitLogicEP7AstNodeENKUlPK8AstCCallE_clES6_.exit: ; preds = %2, %5, %18
  %22 = getelementptr inbounds i8, ptr %1, i64 48
  %23 = load ptr, ptr %22, align 8
  %.not = icmp eq ptr %23, null
  br i1 %.not, label %29, label %24

24:                                               ; preds = %_ZZN7V3Sched12_GLOBAL__N_117SchedGraphBuilder10visitLogicEP7AstNodeENKUlPK8AstCCallE_clES6_.exit
  %25 = getelementptr inbounds i8, ptr %0, i64 8
  %26 = load ptr, ptr %25, align 8
  %27 = load ptr, ptr %26, align 8
  %28 = getelementptr inbounds i8, ptr %27, i64 8
  store ptr %28, ptr %26, align 8
  store ptr %23, ptr %27, align 8
  br label %29

29:                                               ; preds = %24, %_ZZN7V3Sched12_GLOBAL__N_117SchedGraphBuilder10visitLogicEP7AstNodeENKUlPK8AstCCallE_clES6_.exit
  %30 = getelementptr inbounds i8, ptr %1, i64 40
  %31 = load ptr, ptr %30, align 8
  %.not19 = icmp eq ptr %31, null
  br i1 %.not19, label %37, label %32

32:                                               ; preds = %29
  %33 = getelementptr inbounds i8, ptr %0, i64 8
  %34 = load ptr, ptr %33, align 8
  %35 = load ptr, ptr %34, align 8
  %36 = getelementptr inbounds i8, ptr %35, i64 8
  store ptr %36, ptr %34, align 8
  store ptr %31, ptr %35, align 8
  br label %37

37:                                               ; preds = %32, %29
  %38 = getelementptr inbounds i8, ptr %1, i64 32
  %39 = load ptr, ptr %38, align 8
  %.not20 = icmp eq ptr %39, null
  br i1 %.not20, label %45, label %40

40:                                               ; preds = %37
  %41 = getelementptr inbounds i8, ptr %0, i64 8
  %42 = load ptr, ptr %41, align 8
  %43 = load ptr, ptr %42, align 8
  %44 = getelementptr inbounds i8, ptr %43, i64 8
  store ptr %44, ptr %42, align 8
  store ptr %39, ptr %43, align 8
  br label %45

45:                                               ; preds = %40, %37
  %46 = getelementptr inbounds i8, ptr %1, i64 24
  %47 = load ptr, ptr %46, align 8
  %.not21 = icmp eq ptr %47, null
  br i1 %.not21, label %53, label %48

48:                                               ; preds = %45
  %49 = getelementptr inbounds i8, ptr %0, i64 8
  %50 = load ptr, ptr %49, align 8
  %51 = load ptr, ptr %50, align 8
  %52 = getelementptr inbounds i8, ptr %51, i64 8
  store ptr %52, ptr %50, align 8
  store ptr %47, ptr %51, align 8
  br label %53

53:                                               ; preds = %45, %48
  ret void
}